target datalayout = "e-m:e-p270:32:32-p271:32:32-p272:64:64-i64:64-i128:128-f80:128-n8:16:32:64-S128"
target triple = "x86_64-pc-linux-gnu"

%class.MemReporterBase = type { i64, ptr, %class.StreamAutoIndentor }
%class.StreamAutoIndentor = type <{ ptr, i8, [7 x i8] }>
%class.stringStream = type <{ %class.outputStream, ptr, i64, i64, i8, [48 x i8], [7 x i8] }>
%class.outputStream = type { ptr, i32, i8, i32, i64, %class.TimeStamp, ptr, i64 }
%class.TimeStamp = type { i64 }
%"class.MemoryFileTracker::Instance::Locker" = type { i8 }

; Function Attrs: mustprogress nounwind uwtable
define linkonce_odr hidden void @_ZN12outputStream9print_rawEPKc(ptr noundef nonnull align 8 dereferenceable(56) %0, ptr noundef %1) #1 comdat align 2 {
  %3 = alloca ptr, align 8
  %4 = alloca ptr, align 8
  store ptr %0, ptr %3, align 8
  store ptr %1, ptr %4, align 8
  %5 = load ptr, ptr %3, align 8
  %6 = load ptr, ptr %4, align 8
  %7 = load ptr, ptr %4, align 8
  %8 = call i64 @strlen(ptr noundef %7) #5
  call void @_ZN12outputStream9print_rawEPKcm(ptr noundef nonnull align 8 dereferenceable(56) %5, ptr noundef %6, i64 noundef %8)
  ret void
}

; Function Attrs: mustprogress nounwind uwtable
define linkonce_odr hidden noundef ptr @_ZNK12stringStream6freezeEv(ptr noundef nonnull align 8 dereferenceable(129) %0) #1 comdat align 2 {
  %2 = alloca ptr, align 8
  store ptr %0, ptr %2, align 8
  %3 = load ptr, ptr %2, align 8
  %4 = getelementptr inbounds %class.stringStream, ptr %3, i32 0, i32 1
  %5 = load ptr, ptr %4, align 8
  ret ptr %5
}

; Function Attrs: mustprogress nounwind uwtable
define linkonce_odr hidden noundef ptr @_ZNK15MemReporterBase6outputEv(ptr noundef nonnull align 8 dereferenceable(32) %0) #1 comdat align 2 {
  %2 = alloca ptr, align 8
  store ptr %0, ptr %2, align 8
  %3 = load ptr, ptr %2, align 8
  %4 = getelementptr inbounds %class.MemReporterBase, ptr %3, i32 0, i32 1
  %5 = load ptr, ptr %4, align 8
  ret ptr %5
}

; Function Attrs: mustprogress nounwind uwtable
define linkonce_odr hidden noundef i64 @_ZNK15MemReporterBase5scaleEv(ptr noundef nonnull align 8 dereferenceable(32) %0) #1 comdat align 2 {
  %2 = alloca ptr, align 8
  store ptr %0, ptr %2, align 8
  %3 = load ptr, ptr %2, align 8
  %4 = getelementptr inbounds %class.MemReporterBase, ptr %3, i32 0, i32 0
  %5 = load i64, ptr %4, align 8
  ret i64 %5
}

; Function Attrs: mustprogress nounwind uwtable
define hidden void @_ZN17MemDetailReporter30report_memory_file_allocationsEv(ptr noundef nonnull align 8 dereferenceable(2488) %0) #1 align 2 {
  %2 = alloca ptr, align 8
  %3 = alloca %class.stringStream, align 8
  %4 = alloca %"class.MemoryFileTracker::Instance::Locker", align 1
  store ptr %0, ptr %2, align 8
  %5 = load ptr, ptr %2, align 8
  call void @_ZN12stringStreamC1Em(ptr noundef nonnull align 8 dereferenceable(129) %3, i64 noundef 0)
  call void @_ZN17MemoryFileTracker8Instance6LockerC1Ev(ptr noundef nonnull align 1 dereferenceable(1) %4)
  %6 = getelementptr inbounds i8, ptr %5, i64 8
  %7 = call noundef i64 @_ZNK15MemReporterBase5scaleEv(ptr noundef nonnull align 8 dereferenceable(32) %6)
  call void @_ZN17MemoryFileTracker8Instance20print_all_reports_onEP12outputStreamm(ptr noundef %3, i64 noundef %7)
  call void @_ZN17MemoryFileTracker8Instance6LockerD1Ev(ptr noundef nonnull align 1 dereferenceable(1) %4) #6
  %8 = getelementptr inbounds i8, ptr %5, i64 8
  %9 = call noundef ptr @_ZNK15MemReporterBase6outputEv(ptr noundef nonnull align 8 dereferenceable(32) %8)
  %10 = call noundef ptr @_ZNK12stringStream6freezeEv(ptr noundef nonnull align 8 dereferenceable(129) %3)
  call void @_ZN12outputStream9print_rawEPKc(ptr noundef nonnull align 8 dereferenceable(56) %9, ptr noundef %10)
  call void @_ZN12stringStreamD1Ev(ptr noundef nonnull align 8 dereferenceable(129) %3) #6
  ret void
}