; Function Attrs: mustprogress nounwind uwtable
define hidden void @_ZN17MemDetailReporter30report_memory_file_allocationsEv(ptr nocapture noundef nonnull readonly align 8 dereferenceable(2488) %0) local_unnamed_addr #0 align 2 {
  %2 = alloca %class.stringStream, align 8
  %3 = alloca %"class.MemoryFileTracker::Instance::Locker", align 1
  call void @_ZN12stringStreamC1Em(ptr noundef nonnull align 8 dereferenceable(129) %2, i64 noundef 0) #7
  call void @_ZN17MemoryFileTracker8Instance6LockerC1Ev(ptr noundef nonnull align 1 dereferenceable(1) %3) #7
  %4 = getelementptr inbounds i8, ptr %0, i64 8
  %5 = load i64, ptr %4, align 8
  call void @_ZN17MemoryFileTracker8Instance20print_all_reports_onEP12outputStreamm(ptr noundef nonnull %2, i64 noundef %5) #7
  call void @_ZN17MemoryFileTracker8Instance6LockerD1Ev(ptr noundef nonnull align 1 dereferenceable(1) %3) #7
  %6 = getelementptr inbounds i8, ptr %0, i64 16
  %7 = load ptr, ptr %6, align 8
  %8 = getelementptr inbounds i8, ptr %2, i64 56
  %9 = load ptr, ptr %8, align 8
  %10 = call i64 @strlen(ptr noundef nonnull dereferenceable(1) %9) #8
  call void @_ZN12outputStream9print_rawEPKcm(ptr noundef nonnull align 8 dereferenceable(56) %7, ptr noundef %9, i64 noundef %10) #7
  call void @_ZN12stringStreamD1Ev(ptr noundef nonnull align 8 dereferenceable(129) %2) #7
  ret void
}